target datalayout = "e-m:e-p270:32:32-p271:32:32-p272:64:64-i64:64-i128:128-f80:128-n8:16:32:64-S128"
target triple = "x86_64-pc-linux-gnu"

%"class.duckdb::BaseStatistics" = type { %"struct.duckdb::LogicalType", i8, i8, i64, %union.anon, %"class.duckdb::unique_ptr" }
%"struct.duckdb::LogicalType" = type { i8, i8, %"class.duckdb::shared_ptr" }
%"class.duckdb::shared_ptr" = type { %"class.std::shared_ptr" }
%"class.std::shared_ptr" = type { %"class.std::__shared_ptr" }
%"class.std::__shared_ptr" = type { ptr, %"class.std::__shared_count" }
%"class.std::__shared_count" = type { ptr }
%union.anon = type { %"struct.duckdb::NumericStatsData" }
%"struct.duckdb::NumericStatsData" = type { i8, i8, %"struct.duckdb::NumericValueUnion", %"struct.duckdb::NumericValueUnion" }
%"struct.duckdb::NumericValueUnion" = type { %"union.duckdb::NumericValueUnion::Val" }
%"union.duckdb::NumericValueUnion::Val" = type { %"struct.duckdb::hugeint_t" }
%"struct.duckdb::hugeint_t" = type { i64, i64 }
%"class.duckdb::unique_ptr" = type { %"class.std::unique_ptr" }
%"class.std::unique_ptr" = type { %"struct.std::__uniq_ptr_data" }
%"struct.std::__uniq_ptr_data" = type { %"class.std::__uniq_ptr_impl" }
%"class.std::__uniq_ptr_impl" = type { %"class.std::tuple" }
%"class.std::tuple" = type { %"struct.std::_Tuple_impl" }
%"struct.std::_Tuple_impl" = type { %"struct.std::_Head_base.1" }
%"struct.std::_Head_base.1" = type { ptr }
%"struct.std::pair" = type { %"class.std::__cxx11::basic_string", %"struct.duckdb::LogicalType" }
%"class.std::__cxx11::basic_string" = type { %"struct.std::__cxx11::basic_string<char>::_Alloc_hider", i64, %union.anon.11 }
%"struct.std::__cxx11::basic_string<char>::_Alloc_hider" = type { ptr }
%union.anon.11 = type { i64, [8 x i8] }
%"struct.std::_Vector_base.86" = type { %"struct.std::_Vector_base<std::pair<std::__cxx11::basic_string<char>, duckdb::LogicalType>, std::allocator<std::pair<std::__cxx11::basic_string<char>, duckdb::LogicalType>>>::_Vector_impl" }
%"struct.std::_Vector_base<std::pair<std::__cxx11::basic_string<char>, duckdb::LogicalType>, std::allocator<std::pair<std::__cxx11::basic_string<char>, duckdb::LogicalType>>>::_Vector_impl" = type { %"struct.std::_Vector_base<std::pair<std::__cxx11::basic_string<char>, duckdb::LogicalType>, std::allocator<std::pair<std::__cxx11::basic_string<char>, duckdb::LogicalType>>>::_Vector_impl_data" }
%"struct.std::_Vector_base<std::pair<std::__cxx11::basic_string<char>, duckdb::LogicalType>, std::allocator<std::pair<std::__cxx11::basic_string<char>, duckdb::LogicalType>>>::_Vector_impl_data" = type { ptr, ptr, ptr }

@_ZN6duckdb14BaseStatisticsC1ENS_11LogicalTypeE = unnamed_addr alias void (ptr, ptr), ptr @_ZN6duckdb14BaseStatisticsC2ENS_11LogicalTypeE
@_ZN6duckdb14BaseStatisticsD1Ev = unnamed_addr alias void (ptr), ptr @_ZN6duckdb14BaseStatisticsD2Ev

; Function Attrs: mustprogress nounwind uwtable
define linkonce_odr noundef nonnull align 8 dereferenceable(8) ptr @_ZNSt10_Head_baseILm0EPN6duckdb14BaseStatisticsELb0EE7_M_headERKS3_(ptr noundef nonnull align 8 dereferenceable(8) %0) #6 comdat align 2 {
  %2 = alloca ptr, align 8
  store ptr %0, ptr %2, align 8, !tbaa !343
  %3 = load ptr, ptr %2, align 8, !tbaa !343
  %4 = getelementptr inbounds nuw %"struct.std::_Head_base.1", ptr %3, i32 0, i32 0
  ret ptr %4
}

; Function Attrs: mustprogress nounwind uwtable
define linkonce_odr noundef nonnull align 8 dereferenceable(8) ptr @_ZNSt11_Tuple_implILm0EJPN6duckdb14BaseStatisticsESt14default_deleteIA_S1_EEE7_M_headERKS6_(ptr noundef nonnull align 8 dereferenceable(8) %0) #6 comdat align 2 {
  %2 = alloca ptr, align 8
  store ptr %0, ptr %2, align 8, !tbaa !339
  %3 = load ptr, ptr %2, align 8, !tbaa !339
  %4 = call noundef nonnull align 8 dereferenceable(8) ptr @_ZNSt10_Head_baseILm0EPN6duckdb14BaseStatisticsELb0EE7_M_headERKS3_(ptr noundef nonnull align 8 dereferenceable(8) %3) #3
  ret ptr %4
}

; Function Attrs: mustprogress nounwind uwtable
define linkonce_odr noundef nonnull align 8 dereferenceable(8) ptr @_ZSt12__get_helperILm0EPN6duckdb14BaseStatisticsEJSt14default_deleteIA_S1_EEERKT0_RKSt11_Tuple_implIXT_EJS6_DpT1_EE(ptr noundef nonnull align 8 dereferenceable(8) %0) #6 comdat {
  %2 = alloca ptr, align 8
  store ptr %0, ptr %2, align 8, !tbaa !339
  %3 = load ptr, ptr %2, align 8, !tbaa !339
  %4 = call noundef nonnull align 8 dereferenceable(8) ptr @_ZNSt11_Tuple_implILm0EJPN6duckdb14BaseStatisticsESt14default_deleteIA_S1_EEE7_M_headERKS6_(ptr noundef nonnull align 8 dereferenceable(8) %3) #3
  ret ptr %4
}

; Function Attrs: mustprogress nounwind uwtable
define linkonce_odr noundef nonnull align 8 dereferenceable(8) ptr @_ZSt3getILm0EJPN6duckdb14BaseStatisticsESt14default_deleteIA_S1_EEERKNSt13tuple_elementIXT_ESt5tupleIJDpT0_EEE4typeERKSA_(ptr noundef nonnull align 8 dereferenceable(8) %0) #6 comdat {
  %2 = alloca ptr, align 8
  store ptr %0, ptr %2, align 8, !tbaa !337
  %3 = load ptr, ptr %2, align 8, !tbaa !337
  %4 = call noundef nonnull align 8 dereferenceable(8) ptr @_ZSt12__get_helperILm0EPN6duckdb14BaseStatisticsEJSt14default_deleteIA_S1_EEERKT0_RKSt11_Tuple_implIXT_EJS6_DpT1_EE(ptr noundef nonnull align 8 dereferenceable(8) %3) #3
  ret ptr %4
}

; Function Attrs: mustprogress nounwind uwtable
define linkonce_odr noundef ptr @_ZNKSt15__uniq_ptr_implIN6duckdb14BaseStatisticsESt14default_deleteIA_S1_EE6_M_ptrEv(ptr noundef nonnull align 8 dereferenceable(8) %0) #6 comdat align 2 {
  %2 = alloca ptr, align 8
  store ptr %0, ptr %2, align 8, !tbaa !335
  %3 = load ptr, ptr %2, align 8
  %4 = getelementptr inbounds nuw %"class.std::__uniq_ptr_impl", ptr %3, i32 0, i32 0
  %5 = call noundef nonnull align 8 dereferenceable(8) ptr @_ZSt3getILm0EJPN6duckdb14BaseStatisticsESt14default_deleteIA_S1_EEERKNSt13tuple_elementIXT_ESt5tupleIJDpT0_EEE4typeERKSA_(ptr noundef nonnull align 8 dereferenceable(8) %4) #3
  %6 = load ptr, ptr %5, align 8, !tbaa !3
  ret ptr %6
}

; Function Attrs: mustprogress nounwind uwtable
define linkonce_odr noundef ptr @_ZNKSt10unique_ptrIA_N6duckdb14BaseStatisticsESt14default_deleteIS2_EE3getEv(ptr noundef nonnull align 8 dereferenceable(8) %0) #6 comdat align 2 {
  %2 = alloca ptr, align 8
  store ptr %0, ptr %2, align 8, !tbaa !32
  %3 = load ptr, ptr %2, align 8
  %4 = getelementptr inbounds nuw %"class.std::unique_ptr", ptr %3, i32 0, i32 0
  %5 = call noundef ptr @_ZNKSt15__uniq_ptr_implIN6duckdb14BaseStatisticsESt14default_deleteIA_S1_EE6_M_ptrEv(ptr noundef nonnull align 8 dereferenceable(8) %4) #3
  ret ptr %5
}

; Function Attrs: mustprogress uwtable
define void @_ZN6duckdb14BaseStatistics13CreateUnknownENS_11LogicalTypeE(ptr dead_on_unwind noalias writable sret(%"class.duckdb::BaseStatistics") align 8 %0, ptr noundef %1) #4 align 2 personality ptr @__gxx_personality_v0 {
  %3 = alloca ptr, align 8
  %4 = alloca ptr, align 8
  %5 = alloca i1, align 1
  %6 = alloca %"struct.duckdb::LogicalType", align 8
  %7 = alloca ptr, align 8
  %8 = alloca i32, align 4
  store ptr %0, ptr %3, align 8
  store ptr %1, ptr %4, align 8, !tbaa !10
  store i1 false, ptr %5, align 1
  call void @_ZN6duckdb11LogicalTypeC1EOS0_(ptr noundef nonnull align 8 dereferenceable(24) %6, ptr noundef nonnull align 8 dereferenceable(24) %1) #3
  invoke void @_ZN6duckdb14BaseStatistics17CreateUnknownTypeENS_11LogicalTypeE(ptr dead_on_unwind writable sret(%"class.duckdb::BaseStatistics") align 8 %0, ptr noundef %6)
          to label %9 unwind label %11

9:                                                ; preds = %2
  call void @_ZN6duckdb11LogicalTypeD1Ev(ptr noundef nonnull align 8 dereferenceable(24) %6) #3
  call void @_ZN6duckdb14BaseStatistics17InitializeUnknownEv(ptr noundef nonnull align 8 dereferenceable(88) %0)
  store i1 true, ptr %5, align 1
  %10 = load i1, ptr %5, align 1
  br i1 %10, label %16, label %15

11:                                               ; preds = %2
  %12 = landingpad { ptr, i32 }
          cleanup
  %13 = extractvalue { ptr, i32 } %12, 0
  store ptr %13, ptr %7, align 8
  %14 = extractvalue { ptr, i32 } %12, 1
  store i32 %14, ptr %8, align 4
  call void @_ZN6duckdb11LogicalTypeD1Ev(ptr noundef nonnull align 8 dereferenceable(24) %6) #3
  br label %17

15:                                               ; preds = %9
  call void @_ZN6duckdb14BaseStatisticsD1Ev(ptr noundef nonnull align 8 dereferenceable(88) %0) #3
  br label %16

16:                                               ; preds = %15, %9
  ret void

17:                                               ; preds = %11
  %18 = load ptr, ptr %7, align 8
  %19 = load i32, ptr %8, align 4
  %20 = insertvalue { ptr, i32 } poison, ptr %18, 0
  %21 = insertvalue { ptr, i32 } %20, i32 %19, 1
  resume { ptr, i32 } %21
}

; Function Attrs: mustprogress nounwind uwtable
define linkonce_odr noundef nonnull align 8 dereferenceable(88) ptr @_ZNK6duckdb10unique_ptrIA_NS_14BaseStatisticsESt14default_deleteIS1_ELb0EEixEm(ptr noundef nonnull align 8 dereferenceable(8) %0, i64 noundef %1) #6 comdat align 2 {
  %3 = alloca ptr, align 8
  %4 = alloca i64, align 8
  %5 = alloca ptr, align 8
  store ptr %0, ptr %3, align 8, !tbaa !8
  store i64 %1, ptr %4, align 8, !tbaa !40
  %6 = load ptr, ptr %3, align 8
  call void @llvm.lifetime.start.p0(i64 8, ptr %5) #3
  %7 = call noundef ptr @_ZNKSt10unique_ptrIA_N6duckdb14BaseStatisticsESt14default_deleteIS2_EE3getEv(ptr noundef nonnull align 8 dereferenceable(8) %6) #3
  store ptr %7, ptr %5, align 8, !tbaa !3
  %8 = load ptr, ptr %5, align 8, !tbaa !3
  %9 = load i64, ptr %4, align 8, !tbaa !40
  %10 = getelementptr inbounds nuw %"class.duckdb::BaseStatistics", ptr %8, i64 %9
  call void @llvm.lifetime.end.p0(i64 8, ptr %5) #3
  ret ptr %10
}

; Function Attrs: mustprogress nounwind uwtable
define linkonce_odr noundef i64 @_ZNKSt6vectorISt4pairINSt7__cxx1112basic_stringIcSt11char_traitsIcESaIcEEEN6duckdb11LogicalTypeEESaIS9_EE4sizeEv(ptr noundef nonnull align 8 dereferenceable(24) %0) #6 comdat align 2 {
  %2 = alloca ptr, align 8
  store ptr %0, ptr %2, align 8, !tbaa !167
  %3 = load ptr, ptr %2, align 8
  %4 = getelementptr inbounds nuw %"struct.std::_Vector_base.86", ptr %3, i32 0, i32 0
  %5 = getelementptr inbounds nuw %"struct.std::_Vector_base<std::pair<std::__cxx11::basic_string<char>, duckdb::LogicalType>, std::allocator<std::pair<std::__cxx11::basic_string<char>, duckdb::LogicalType>>>::_Vector_impl_data", ptr %4, i32 0, i32 1
  %6 = load ptr, ptr %5, align 8, !tbaa !169
  %7 = getelementptr inbounds nuw %"struct.std::_Vector_base.86", ptr %3, i32 0, i32 0
  %8 = getelementptr inbounds nuw %"struct.std::_Vector_base<std::pair<std::__cxx11::basic_string<char>, duckdb::LogicalType>, std::allocator<std::pair<std::__cxx11::basic_string<char>, duckdb::LogicalType>>>::_Vector_impl_data", ptr %7, i32 0, i32 0
  %9 = load ptr, ptr %8, align 8, !tbaa !172
  %10 = ptrtoint ptr %6 to i64
  %11 = ptrtoint ptr %9 to i64
  %12 = sub i64 %10, %11
  %13 = sdiv exact i64 %12, 56
  ret i64 %13
}

; Function Attrs: mustprogress nounwind uwtable
define void @_ZN6duckdb14BaseStatistics17InitializeUnknownEv(ptr noundef nonnull align 8 dereferenceable(88) %0) #6 align 2 {
  %2 = alloca ptr, align 8
  store ptr %0, ptr %2, align 8, !tbaa !3
  %3 = load ptr, ptr %2, align 8
  %4 = getelementptr inbounds nuw %"class.duckdb::BaseStatistics", ptr %3, i32 0, i32 1
  store i8 1, ptr %4, align 8, !tbaa !43
  %5 = getelementptr inbounds nuw %"class.duckdb::BaseStatistics", ptr %3, i32 0, i32 2
  store i8 1, ptr %5, align 1, !tbaa !46
  ret void
}

; Function Attrs: mustprogress uwtable
define void @_ZN6duckdb11StructStats13CreateUnknownENS_11LogicalTypeE(ptr dead_on_unwind noalias writable sret(%"class.duckdb::BaseStatistics") align 8 %0, ptr noundef %1) #4 align 2 personality ptr @__gxx_personality_v0 {
  %3 = alloca ptr, align 8
  %4 = alloca ptr, align 8
  %5 = alloca ptr, align 8
  %6 = alloca i1, align 1
  %7 = alloca %"struct.duckdb::LogicalType", align 8
  %8 = alloca ptr, align 8
  %9 = alloca i32, align 4
  %10 = alloca i64, align 8
  %11 = alloca %"class.duckdb::BaseStatistics", align 8
  %12 = alloca %"struct.duckdb::LogicalType", align 8
  store ptr %0, ptr %3, align 8
  store ptr %1, ptr %4, align 8, !tbaa !10
  call void @llvm.lifetime.start.p0(i64 8, ptr %5) #3
  %13 = call noundef nonnull align 8 dereferenceable(24) ptr @_ZN6duckdb10StructType13GetChildTypesB5cxx11ERKNS_11LogicalTypeE(ptr noundef nonnull align 8 dereferenceable(24) %1)
  store ptr %13, ptr %5, align 8, !tbaa !38
  store i1 false, ptr %6, align 1
  call void @_ZN6duckdb11LogicalTypeC1EOS0_(ptr noundef nonnull align 8 dereferenceable(24) %7, ptr noundef nonnull align 8 dereferenceable(24) %1) #3
  invoke void @_ZN6duckdb14BaseStatisticsC1ENS_11LogicalTypeE(ptr noundef nonnull align 8 dereferenceable(88) %0, ptr noundef %7)
          to label %14 unwind label %21

14:                                               ; preds = %2
  call void @_ZN6duckdb11LogicalTypeD1Ev(ptr noundef nonnull align 8 dereferenceable(24) %7) #3
  call void @_ZN6duckdb14BaseStatistics17InitializeUnknownEv(ptr noundef nonnull align 8 dereferenceable(88) %0)
  call void @llvm.lifetime.start.p0(i64 8, ptr %10) #3
  store i64 0, ptr %10, align 8, !tbaa !40
  br label %15

15:                                               ; preds = %38, %14
  %16 = load i64, ptr %10, align 8, !tbaa !40
  %17 = load ptr, ptr %5, align 8, !tbaa !38
  %18 = call noundef i64 @_ZNKSt6vectorISt4pairINSt7__cxx1112basic_stringIcSt11char_traitsIcESaIcEEEN6duckdb11LogicalTypeEESaIS9_EE4sizeEv(ptr noundef nonnull align 8 dereferenceable(24) %17) #3
  %19 = icmp ult i64 %16, %18
  br i1 %19, label %25, label %20

20:                                               ; preds = %15
  call void @llvm.lifetime.end.p0(i64 8, ptr %10) #3
  br label %60

21:                                               ; preds = %2
  %22 = landingpad { ptr, i32 }
          cleanup
  %23 = extractvalue { ptr, i32 } %22, 0
  store ptr %23, ptr %8, align 8
  %24 = extractvalue { ptr, i32 } %22, 1
  store i32 %24, ptr %9, align 4
  call void @_ZN6duckdb11LogicalTypeD1Ev(ptr noundef nonnull align 8 dereferenceable(24) %7) #3
  br label %64

25:                                               ; preds = %15
  %26 = getelementptr inbounds nuw %"class.duckdb::BaseStatistics", ptr %0, i32 0, i32 5
  %27 = load i64, ptr %10, align 8, !tbaa !40
  %28 = invoke noundef nonnull align 8 dereferenceable(88) ptr @_ZNK6duckdb10unique_ptrIA_NS_14BaseStatisticsESt14default_deleteIS1_ELb0EEixEm(ptr noundef nonnull align 8 dereferenceable(8) %26, i64 noundef %27)
          to label %29 unwind label %41

29:                                               ; preds = %25
  call void @llvm.lifetime.start.p0(i64 88, ptr %11) #3
  %30 = load ptr, ptr %5, align 8, !tbaa !38
  %31 = load i64, ptr %10, align 8, !tbaa !40
  %32 = invoke noundef nonnull align 8 dereferenceable(56) ptr @_ZNK6duckdb6vectorISt4pairINSt7__cxx1112basic_stringIcSt11char_traitsIcESaIcEEENS_11LogicalTypeEELb1EEixEm(ptr noundef nonnull align 8 dereferenceable(24) %30, i64 noundef %31)
          to label %33 unwind label %45

33:                                               ; preds = %29
  %34 = getelementptr inbounds nuw %"struct.std::pair", ptr %32, i32 0, i32 1
  invoke void @_ZN6duckdb11LogicalTypeC1ERKS0_(ptr noundef nonnull align 8 dereferenceable(24) %12, ptr noundef nonnull align 8 dereferenceable(24) %34)
          to label %35 unwind label %45

35:                                               ; preds = %33
  invoke void @_ZN6duckdb14BaseStatistics13CreateUnknownENS_11LogicalTypeE(ptr dead_on_unwind writable sret(%"class.duckdb::BaseStatistics") align 8 %11, ptr noundef %12)
          to label %36 unwind label %49

36:                                               ; preds = %35
  invoke void @_ZN6duckdb14BaseStatistics4CopyERKS0_(ptr noundef nonnull align 8 dereferenceable(88) %28, ptr noundef nonnull align 8 dereferenceable(88) %11)
          to label %37 unwind label %53

37:                                               ; preds = %36
  call void @_ZN6duckdb14BaseStatisticsD1Ev(ptr noundef nonnull align 8 dereferenceable(88) %11) #3
  call void @_ZN6duckdb11LogicalTypeD1Ev(ptr noundef nonnull align 8 dereferenceable(24) %12) #3
  call void @llvm.lifetime.end.p0(i64 88, ptr %11) #3
  br label %38

38:                                               ; preds = %37
  %39 = load i64, ptr %10, align 8, !tbaa !40
  %40 = add i64 %39, 1
  store i64 %40, ptr %10, align 8, !tbaa !40
  br label %15, !llvm.loop !58

41:                                               ; preds = %25
  %42 = landingpad { ptr, i32 }
          cleanup
  %43 = extractvalue { ptr, i32 } %42, 0
  store ptr %43, ptr %8, align 8
  %44 = extractvalue { ptr, i32 } %42, 1
  store i32 %44, ptr %9, align 4
  br label %59

45:                                               ; preds = %33, %29
  %46 = landingpad { ptr, i32 }
          cleanup
  %47 = extractvalue { ptr, i32 } %46, 0
  store ptr %47, ptr %8, align 8
  %48 = extractvalue { ptr, i32 } %46, 1
  store i32 %48, ptr %9, align 4
  br label %58

49:                                               ; preds = %35
  %50 = landingpad { ptr, i32 }
          cleanup
  %51 = extractvalue { ptr, i32 } %50, 0
  store ptr %51, ptr %8, align 8
  %52 = extractvalue { ptr, i32 } %50, 1
  store i32 %52, ptr %9, align 4
  br label %57

53:                                               ; preds = %36
  %54 = landingpad { ptr, i32 }
          cleanup
  %55 = extractvalue { ptr, i32 } %54, 0
  store ptr %55, ptr %8, align 8
  %56 = extractvalue { ptr, i32 } %54, 1
  store i32 %56, ptr %9, align 4
  call void @_ZN6duckdb14BaseStatisticsD1Ev(ptr noundef nonnull align 8 dereferenceable(88) %11) #3
  br label %57

57:                                               ; preds = %53, %49
  call void @_ZN6duckdb11LogicalTypeD1Ev(ptr noundef nonnull align 8 dereferenceable(24) %12) #3
  br label %58

58:                                               ; preds = %57, %45
  call void @llvm.lifetime.end.p0(i64 88, ptr %11) #3
  br label %59

59:                                               ; preds = %58, %41
  call void @llvm.lifetime.end.p0(i64 8, ptr %10) #3
  call void @_ZN6duckdb14BaseStatisticsD1Ev(ptr noundef nonnull align 8 dereferenceable(88) %0) #3
  br label %64

60:                                               ; preds = %20
  store i1 true, ptr %6, align 1
  %61 = load i1, ptr %6, align 1
  br i1 %61, label %63, label %62

62:                                               ; preds = %60
  call void @_ZN6duckdb14BaseStatisticsD1Ev(ptr noundef nonnull align 8 dereferenceable(88) %0) #3
  br label %63

63:                                               ; preds = %62, %60
  call void @llvm.lifetime.end.p0(i64 8, ptr %5) #3
  ret void

64:                                               ; preds = %59, %21
  call void @llvm.lifetime.end.p0(i64 8, ptr %5) #3
  br label %65

65:                                               ; preds = %64
  %66 = load ptr, ptr %8, align 8
  %67 = load i32, ptr %9, align 4
  %68 = insertvalue { ptr, i32 } poison, ptr %66, 0
  %69 = insertvalue { ptr, i32 } %68, i32 %67, 1
  resume { ptr, i32 } %69
}