; Function Attrs: mustprogress uwtable
define void @_ZN6duckdb11StructStats13CreateUnknownENS_11LogicalTypeE(ptr dead_on_unwind noalias writable sret(%"class.duckdb::BaseStatistics") align 8 %0, ptr noundef nonnull %1) local_unnamed_addr #3 align 2 personality ptr @__gxx_personality_v0 {
  %3 = alloca %"struct.duckdb::LogicalType", align 8
  %4 = alloca %"struct.duckdb::LogicalType", align 8
  %5 = alloca %"class.duckdb::BaseStatistics", align 8
  %6 = alloca %"struct.duckdb::LogicalType", align 8
  %7 = tail call noundef nonnull align 8 dereferenceable(24) ptr @_ZN6duckdb10StructType13GetChildTypesB5cxx11ERKNS_11LogicalTypeE(ptr noundef nonnull align 8 dereferenceable(24) %1)
  call void @_ZN6duckdb11LogicalTypeC1EOS0_(ptr noundef nonnull align 8 dereferenceable(24) %4, ptr noundef nonnull align 8 dereferenceable(24) %1) #29
  invoke void @_ZN6duckdb14BaseStatisticsC1ENS_11LogicalTypeE(ptr noundef nonnull align 8 dereferenceable(88) %0, ptr noundef nonnull %4)
          to label %8 unwind label %17

8:                                                ; preds = %2
  call void @_ZN6duckdb11LogicalTypeD1Ev(ptr noundef nonnull align 8 dereferenceable(24) %4) #29
  %9 = getelementptr inbounds nuw i8, ptr %0, i64 24
  store i8 1, ptr %9, align 8, !tbaa !49
  %10 = getelementptr inbounds nuw i8, ptr %0, i64 25
  store i8 1, ptr %10, align 1, !tbaa !52
  %11 = getelementptr inbounds nuw i8, ptr %7, i64 8
  %12 = load ptr, ptr %11, align 8, !tbaa !43
  %13 = load ptr, ptr %7, align 8, !tbaa !46
  %.not = icmp eq ptr %12, %13
  br i1 %.not, label %._crit_edge, label %.lr.ph

.lr.ph:                                           ; preds = %8
  %14 = getelementptr inbounds nuw i8, ptr %0, i64 80
  %15 = getelementptr inbounds nuw i8, ptr %5, i64 24
  %16 = getelementptr inbounds nuw i8, ptr %5, i64 25
  br label %19

17:                                               ; preds = %2
  %18 = landingpad { ptr, i32 }
          cleanup
  call void @_ZN6duckdb11LogicalTypeD1Ev(ptr noundef nonnull align 8 dereferenceable(24) %4) #29
  br label %43

19:                                               ; preds = %.lr.ph, %29
  %.015 = phi i64 [ 0, %.lr.ph ], [ %30, %29 ]
  %20 = load ptr, ptr %14, align 8, !tbaa !33
  %21 = getelementptr inbounds nuw %"class.duckdb::BaseStatistics", ptr %20, i64 %.015
  call void @llvm.lifetime.start.p0(i64 88, ptr nonnull %5) #29
  %22 = invoke noundef nonnull align 8 dereferenceable(56) ptr @_ZNK6duckdb6vectorISt4pairINSt7__cxx1112basic_stringIcSt11char_traitsIcESaIcEEENS_11LogicalTypeEELb1EEixEm(ptr noundef nonnull align 8 dereferenceable(24) %7, i64 noundef %.015)
          to label %23 unwind label %38

23:                                               ; preds = %19
  %24 = getelementptr inbounds nuw i8, ptr %22, i64 32
  invoke void @_ZN6duckdb11LogicalTypeC1ERKS0_(ptr noundef nonnull align 8 dereferenceable(24) %6, ptr noundef nonnull align 8 dereferenceable(24) %24)
          to label %25 unwind label %38

25:                                               ; preds = %23
  call void @llvm.experimental.noalias.scope.decl(metadata !66)
  call void @llvm.lifetime.start.p0(i64 24, ptr nonnull %3)
  call void @_ZN6duckdb11LogicalTypeC1EOS0_(ptr noundef nonnull align 8 dereferenceable(24) %3, ptr noundef nonnull align 8 dereferenceable(24) %6) #29, !noalias !66
  invoke void @_ZN6duckdb14BaseStatistics17CreateUnknownTypeENS_11LogicalTypeE(ptr dead_on_unwind nonnull writable sret(%"class.duckdb::BaseStatistics") align 8 %5, ptr noundef nonnull %3)
          to label %28 unwind label %26

26:                                               ; preds = %25
  %27 = landingpad { ptr, i32 }
          cleanup
  call void @_ZN6duckdb11LogicalTypeD1Ev(ptr noundef nonnull align 8 dereferenceable(24) %3) #29
  br label %.body

28:                                               ; preds = %25
  call void @_ZN6duckdb11LogicalTypeD1Ev(ptr noundef nonnull align 8 dereferenceable(24) %3) #29
  store i8 1, ptr %15, align 8, !tbaa !49, !alias.scope !66
  store i8 1, ptr %16, align 1, !tbaa !52, !alias.scope !66
  call void @llvm.lifetime.end.p0(i64 24, ptr nonnull %3)
  invoke void @_ZN6duckdb14BaseStatistics4CopyERKS0_(ptr noundef nonnull align 8 dereferenceable(88) %21, ptr noundef nonnull align 8 dereferenceable(88) %5)
          to label %29 unwind label %40

29:                                               ; preds = %28
  call void @_ZN6duckdb14BaseStatisticsD1Ev(ptr noundef nonnull align 8 dereferenceable(88) %5) #29
  call void @_ZN6duckdb11LogicalTypeD1Ev(ptr noundef nonnull align 8 dereferenceable(24) %6) #29
  call void @llvm.lifetime.end.p0(i64 88, ptr nonnull %5) #29
  %30 = add nuw i64 %.015, 1
  %31 = load ptr, ptr %11, align 8, !tbaa !43
  %32 = load ptr, ptr %7, align 8, !tbaa !46
  %33 = ptrtoint ptr %31 to i64
  %34 = ptrtoint ptr %32 to i64
  %35 = sub i64 %33, %34
  %36 = sdiv exact i64 %35, 56
  %37 = icmp ult i64 %30, %36
  br i1 %37, label %19, label %._crit_edge, !llvm.loop !69

38:                                               ; preds = %23, %19
  %39 = landingpad { ptr, i32 }
          cleanup
  br label %42

40:                                               ; preds = %28
  %41 = landingpad { ptr, i32 }
          cleanup
  call void @_ZN6duckdb14BaseStatisticsD1Ev(ptr noundef nonnull align 8 dereferenceable(88) %5) #29
  br label %.body

.body:                                            ; preds = %26, %40
  %.pn = phi { ptr, i32 } [ %41, %40 ], [ %27, %26 ]
  call void @_ZN6duckdb11LogicalTypeD1Ev(ptr noundef nonnull align 8 dereferenceable(24) %6) #29
  br label %42

42:                                               ; preds = %.body, %38
  %.pn.pn = phi { ptr, i32 } [ %.pn, %.body ], [ %39, %38 ]
  call void @llvm.lifetime.end.p0(i64 88, ptr nonnull %5) #29
  call void @_ZN6duckdb14BaseStatisticsD1Ev(ptr noundef nonnull align 8 dereferenceable(88) %0) #29
  br label %43

._crit_edge:                                      ; preds = %29, %8
  ret void

43:                                               ; preds = %42, %17
  %.pn.pn.pn = phi { ptr, i32 } [ %.pn.pn, %42 ], [ %18, %17 ]
  resume { ptr, i32 } %.pn.pn.pn
}